(ioptparse
Values
p0
(dp1
S'selected_nodes'
p2
(lp3
sS'autoflatten'
p4
I01
sS'filetype'
p5
S'kicad_module'
p6
sS'ids'
p7
(lp8
S'circle20831-6'
p9
aS'circle20827-5'
p10
aS'circle20823-3'
p11
aS'circle20819-5'
p12
aS'circle20815-7'
p13
aS'circle20803-6'
p14
aS'circle61024-0-3'
p15
asS'crop'
p16
I00
sS'debug'
p17
I00
sS'openkicad'
p18
I00
sS'openfactory'
p19
I00
sS'threshold'
p20
F128.0
sS'path'
p21
S'/home/dusjagr/Documents/8bit_Mixtape/8Bit_EuroRack/KiCAD/8Bit_EuroRack.pretty'
p22
sS'dpi'
p23
F600.0
sb.